target datalayout = "e-m:e-p270:32:32-p271:32:32-p272:64:64-i64:64-i128:128-f80:128-n8:16:32:64-S128"
target triple = "x86_64-pc-linux-gnu"

%"struct.nanobind::dlpack::dtype" = type { i8, i8, i16 }
%"struct.nanobind::dlpack::dltensor" = type { ptr, %"struct.nanobind::dlpack::device", i32, %"struct.nanobind::dlpack::dtype", ptr, ptr, i64 }
%"struct.nanobind::dlpack::device" = type { i32, i32 }
%struct.Wrapper = type { %"class.nanobind::ndarray.208" }
%"class.nanobind::ndarray.208" = type { ptr, %"struct.nanobind::dlpack::dltensor" }

; Function Attrs: inlinehint mustprogress nounwind optsize uwtable
define linkonce_odr hidden void @_ZN8nanobind6dlpack5dtypeC2Ev(ptr noundef nonnull align 2 dereferenceable(4) %0) unnamed_addr #11 comdat align 2 {
  %2 = alloca ptr, align 8
  store ptr %0, ptr %2, align 8, !tbaa !152
  %3 = load ptr, ptr %2, align 8
  %4 = getelementptr inbounds nuw %"struct.nanobind::dlpack::dtype", ptr %3, i32 0, i32 0
  store i8 0, ptr %4, align 2, !tbaa !154
  %5 = getelementptr inbounds nuw %"struct.nanobind::dlpack::dtype", ptr %3, i32 0, i32 1
  store i8 0, ptr %5, align 1, !tbaa !155
  %6 = getelementptr inbounds nuw %"struct.nanobind::dlpack::dtype", ptr %3, i32 0, i32 2
  store i16 0, ptr %6, align 2, !tbaa !156
  ret void
}

; Function Attrs: inlinehint mustprogress nounwind optsize uwtable
define linkonce_odr hidden void @_ZN8nanobind6dlpack6deviceC2Ev(ptr noundef nonnull align 4 dereferenceable(8) %0) unnamed_addr #11 comdat align 2 {
  %2 = alloca ptr, align 8
  store ptr %0, ptr %2, align 8, !tbaa !148
  %3 = load ptr, ptr %2, align 8
  %4 = getelementptr inbounds nuw %"struct.nanobind::dlpack::device", ptr %3, i32 0, i32 0
  store i32 0, ptr %4, align 4, !tbaa !150
  %5 = getelementptr inbounds nuw %"struct.nanobind::dlpack::device", ptr %3, i32 0, i32 1
  store i32 0, ptr %5, align 4, !tbaa !151
  ret void
}

; Function Attrs: inlinehint mustprogress nounwind optsize uwtable
define linkonce_odr hidden void @_ZN8nanobind6dlpack8dltensorC2Ev(ptr noundef nonnull align 8 dereferenceable(48) %0) unnamed_addr #11 comdat align 2 {
  %2 = alloca ptr, align 8
  store ptr %0, ptr %2, align 8, !tbaa !141
  %3 = load ptr, ptr %2, align 8
  %4 = getelementptr inbounds nuw %"struct.nanobind::dlpack::dltensor", ptr %3, i32 0, i32 0
  store ptr null, ptr %4, align 8, !tbaa !143
  %5 = getelementptr inbounds nuw %"struct.nanobind::dlpack::dltensor", ptr %3, i32 0, i32 1
  call void @_ZN8nanobind6dlpack6deviceC2Ev(ptr noundef nonnull align 4 dereferenceable(8) %5) #23
  %6 = getelementptr inbounds nuw %"struct.nanobind::dlpack::dltensor", ptr %3, i32 0, i32 2
  store i32 0, ptr %6, align 8, !tbaa !144
  %7 = getelementptr inbounds nuw %"struct.nanobind::dlpack::dltensor", ptr %3, i32 0, i32 3
  call void @_ZN8nanobind6dlpack5dtypeC2Ev(ptr noundef nonnull align 2 dereferenceable(4) %7) #23
  %8 = getelementptr inbounds nuw %"struct.nanobind::dlpack::dltensor", ptr %3, i32 0, i32 4
  store ptr null, ptr %8, align 8, !tbaa !145
  %9 = getelementptr inbounds nuw %"struct.nanobind::dlpack::dltensor", ptr %3, i32 0, i32 5
  store ptr null, ptr %9, align 8, !tbaa !146
  %10 = getelementptr inbounds nuw %"struct.nanobind::dlpack::dltensor", ptr %3, i32 0, i32 6
  store i64 0, ptr %10, align 8, !tbaa !147
  ret void
}

; Function Attrs: mustprogress nounwind optsize uwtable
define linkonce_odr hidden void @_ZN8nanobind7ndarrayIJfEEC2EOS1_(ptr noundef nonnull align 8 dereferenceable(56) %0, ptr noundef nonnull align 8 dereferenceable(56) %1) unnamed_addr #8 comdat align 2 {
  %3 = alloca ptr, align 8
  %4 = alloca ptr, align 8
  %5 = alloca %"struct.nanobind::dlpack::dltensor", align 8
  store ptr %0, ptr %3, align 8, !tbaa !275
  store ptr %1, ptr %4, align 8, !tbaa !275
  %6 = load ptr, ptr %3, align 8
  %7 = getelementptr inbounds nuw %"class.nanobind::ndarray.208", ptr %6, i32 0, i32 0
  %8 = load ptr, ptr %4, align 8, !tbaa !275
  %9 = getelementptr inbounds nuw %"class.nanobind::ndarray.208", ptr %8, i32 0, i32 0
  %10 = load ptr, ptr %9, align 8, !tbaa !277
  store ptr %10, ptr %7, align 8, !tbaa !277
  %11 = getelementptr inbounds nuw %"class.nanobind::ndarray.208", ptr %6, i32 0, i32 1
  %12 = load ptr, ptr %4, align 8, !tbaa !275
  %13 = getelementptr inbounds nuw %"class.nanobind::ndarray.208", ptr %12, i32 0, i32 1
  call void @llvm.memcpy.p0.p0.i64(ptr align 8 %11, ptr align 8 %13, i64 48, i1 false), !tbaa.struct !159
  %14 = load ptr, ptr %4, align 8, !tbaa !275
  %15 = getelementptr inbounds nuw %"class.nanobind::ndarray.208", ptr %14, i32 0, i32 0
  store ptr null, ptr %15, align 8, !tbaa !277
  call void @llvm.lifetime.start.p0(i64 48, ptr %5) #22
  call void @llvm.memset.p0.i64(ptr align 8 %5, i8 0, i64 48, i1 false)
  call void @_ZN8nanobind6dlpack8dltensorC2Ev(ptr noundef nonnull align 8 dereferenceable(48) %5) #23
  %16 = load ptr, ptr %4, align 8, !tbaa !275
  %17 = getelementptr inbounds nuw %"class.nanobind::ndarray.208", ptr %16, i32 0, i32 1
  call void @llvm.memcpy.p0.p0.i64(ptr align 8 %17, ptr align 8 %5, i64 48, i1 false), !tbaa.struct !159
  call void @llvm.lifetime.end.p0(i64 48, ptr %5) #22
  ret void
}

; Function Attrs: inlinehint mustprogress nounwind optsize uwtable
define internal void @_ZZL30nanobind_init_test_ndarray_extRN8nanobind7module_EEN7WrapperC2EOS2_(ptr noundef nonnull align 8 dereferenceable(56) %0, ptr noundef nonnull align 8 dereferenceable(56) %1) unnamed_addr #11 align 2 {
  %3 = alloca ptr, align 8
  %4 = alloca ptr, align 8
  store ptr %0, ptr %3, align 8, !tbaa !70
  store ptr %1, ptr %4, align 8, !tbaa !70
  %5 = load ptr, ptr %3, align 8
  %6 = getelementptr inbounds nuw %struct.Wrapper, ptr %5, i32 0, i32 0
  %7 = load ptr, ptr %4, align 8, !tbaa !70
  %8 = getelementptr inbounds nuw %struct.Wrapper, ptr %7, i32 0, i32 0
  call void @_ZN8nanobind7ndarrayIJfEEC2EOS1_(ptr noundef nonnull align 8 dereferenceable(56) %6, ptr noundef nonnull align 8 dereferenceable(56) %8) #23
  ret void
}

; Function Attrs: mustprogress nounwind optsize uwtable
define internal void @_ZN8nanobind6detail9wrap_moveIZL30nanobind_init_test_ndarray_extRNS_7module_EE7WrapperEEvPvS5_(ptr noundef %0, ptr noundef %1) #8 {
  %3 = alloca ptr, align 8
  %4 = alloca ptr, align 8
  store ptr %0, ptr %3, align 8, !tbaa !29
  store ptr %1, ptr %4, align 8, !tbaa !29
  %5 = load ptr, ptr %3, align 8, !tbaa !29
  %6 = load ptr, ptr %4, align 8, !tbaa !29
  call void @_ZZL30nanobind_init_test_ndarray_extRN8nanobind7module_EEN7WrapperC2EOS2_(ptr noundef nonnull align 8 dereferenceable(56) %5, ptr noundef nonnull align 8 dereferenceable(56) %6) #23
  ret void
}