; Function Attrs: mustprogress nofree norecurse nosync nounwind optsize willreturn memory(argmem: readwrite) uwtable
define internal void @_ZN8nanobind6detail9wrap_moveIZL30nanobind_init_test_ndarray_extRNS_7module_EE7WrapperEEvPvS5_(ptr noundef writeonly captures(none) initializes((0, 56)) %0, ptr noundef captures(none) %1) #16 {
  %3 = load ptr, ptr %1, align 8, !tbaa !90
  store ptr %3, ptr %0, align 8, !tbaa !90
  %4 = getelementptr inbounds nuw i8, ptr %0, i64 8
  %5 = getelementptr inbounds nuw i8, ptr %1, i64 8
  tail call void @llvm.memcpy.p0.p0.i64(ptr noundef nonnull align 8 dereferenceable(48) %4, ptr noundef nonnull align 8 dereferenceable(48) %5, i64 48, i1 false), !tbaa.struct !103
  tail call void @llvm.memset.p0.i64(ptr noundef nonnull align 8 dereferenceable(56) %1, i8 0, i64 56, i1 false)
  ret void
}